; Function Attrs: mustprogress nounwind uwtable
define noundef ptr @_ZN8nanobind6detail7getattrEP7_objectPKcS2_(ptr noundef %0, ptr noundef %1, ptr noundef %2) local_unnamed_addr #9 personality ptr @__gxx_personality_v0 {
  %4 = alloca ptr, align 8
  call void @llvm.lifetime.start.p0(i64 8, ptr nonnull %4) #27
  %5 = invoke ptr @PyUnicode_FromString(ptr noundef %1)
          to label %.noexc unwind label %25

.noexc:                                           ; preds = %3
  %.not.i.i = icmp eq ptr %5, null
  br i1 %.not.i.i, label %6, label %_ZN8nanobind3strC2EPKc.exit

6:                                                ; preds = %.noexc
  invoke void (ptr, ...) @_ZN8nanobind6detail5raiseEPKcz(ptr noundef nonnull @.str.5) #28
          to label %.noexc7 unwind label %25

.noexc7:                                          ; preds = %6
  unreachable

_ZN8nanobind3strC2EPKc.exit:                      ; preds = %.noexc
  %7 = invoke i32 @_PyObject_LookupAttr(ptr noundef %0, ptr noundef nonnull %5, ptr noundef nonnull %4)
          to label %8 unwind label %25

8:                                                ; preds = %_ZN8nanobind3strC2EPKc.exit
  %9 = load i64, ptr %5, align 8
  %10 = add nsw i64 %9, -1
  store i64 %10, ptr %5, align 8
  %.not.i.i.i.i = icmp eq i64 %10, 0
  br i1 %.not.i.i.i.i, label %11, label %_ZN8nanobind6objectD2Ev.exit

11:                                               ; preds = %8
  invoke void @_Py_Dealloc(ptr noundef nonnull %5)
          to label %_ZN8nanobind6objectD2Ev.exit unwind label %12

12:                                               ; preds = %11
  %13 = landingpad { ptr, i32 }
          catch ptr null
  %14 = extractvalue { ptr, i32 } %13, 0
  call void @__clang_call_terminate(ptr %14) #29
  unreachable

_ZN8nanobind6objectD2Ev.exit:                     ; preds = %8, %11
  %15 = icmp eq i32 %7, 1
  br i1 %15, label %16, label %18

16:                                               ; preds = %_ZN8nanobind6objectD2Ev.exit
  %17 = load ptr, ptr %4, align 8
  br label %_ZL11_Py_XINCREFP7_object.exit

18:                                               ; preds = %_ZN8nanobind6objectD2Ev.exit
  %19 = icmp slt i32 %7, 0
  br i1 %19, label %20, label %21

20:                                               ; preds = %18
  invoke void @PyErr_Clear()
          to label %21 unwind label %25

21:                                               ; preds = %18, %20
  %.not.i = icmp eq ptr %2, null
  br i1 %.not.i, label %_ZL11_Py_XINCREFP7_object.exit, label %22

22:                                               ; preds = %21
  %23 = load i64, ptr %2, align 8
  %24 = add nsw i64 %23, 1
  store i64 %24, ptr %2, align 8
  br label %_ZL11_Py_XINCREFP7_object.exit

_ZL11_Py_XINCREFP7_object.exit:                   ; preds = %22, %21, %16
  %.0 = phi ptr [ %17, %16 ], [ null, %21 ], [ %2, %22 ]
  call void @llvm.lifetime.end.p0(i64 8, ptr nonnull %4) #27
  ret ptr %.0

25:                                               ; preds = %6, %3, %20, %_ZN8nanobind3strC2EPKc.exit
  %26 = landingpad { ptr, i32 }
          catch ptr null
  %27 = extractvalue { ptr, i32 } %26, 0
  call void @__clang_call_terminate(ptr %27) #29
  unreachable
}